target datalayout = "e-m:e-p270:32:32-p271:32:32-p272:64:64-i64:64-i128:128-f80:128-n8:16:32:64-S128"
target triple = "x86_64-pc-linux-gnu"

%struct.Abc_Obj_t_ = type { ptr, ptr, i32, i32, %struct.Vec_Int_t_, %struct.Vec_Int_t_, %union.anon, %union.anon.0 }
%struct.Vec_Int_t_ = type { i32, i32, ptr }
%union.anon = type { ptr }
%union.anon.0 = type { ptr }
%struct.Abc_Ntk_t_ = type { i32, i32, ptr, ptr, ptr, ptr, ptr, ptr, ptr, ptr, ptr, ptr, ptr, [11 x i32], i32, i32, i32, i32, ptr, i32, ptr, ptr, i32, i32, i32, double, i32, %struct.Vec_Int_t_, ptr, ptr, ptr, ptr, ptr, float, i32, ptr, ptr, ptr, ptr, ptr, ptr, ptr, ptr, ptr, ptr, ptr, ptr, ptr, ptr, ptr, ptr, ptr, ptr, ptr, ptr, ptr, ptr }

; Function Attrs: inlinehint nounwind uwtable
define internal ptr @Abc_NtkCreateNode(ptr noundef %0) #2 {
  %2 = alloca ptr, align 8
  store ptr %0, ptr %2, align 8, !tbaa !41
  %3 = load ptr, ptr %2, align 8, !tbaa !41
  %4 = call ptr @Abc_NtkCreateObj(ptr noundef %3, i32 noundef 7)
  ret ptr %4
}

; Function Attrs: nounwind uwtable
define ptr @Abc_NtkBddMux411(ptr noundef %0, ptr noundef %1) #0 {
  %3 = alloca ptr, align 8
  %4 = alloca ptr, align 8
  %5 = alloca ptr, align 8
  %6 = alloca ptr, align 8
  %7 = alloca ptr, align 8
  %8 = alloca ptr, align 8
  %9 = alloca ptr, align 8
  store ptr %0, ptr %3, align 8, !tbaa !41
  store ptr %1, ptr %4, align 8, !tbaa !53
  call void @llvm.lifetime.start.p0(i64 8, ptr %5) #12
  %10 = load ptr, ptr %3, align 8, !tbaa !41
  %11 = getelementptr inbounds nuw %struct.Abc_Ntk_t_, ptr %10, i32 0, i32 30
  %12 = load ptr, ptr %11, align 8, !tbaa !55
  store ptr %12, ptr %5, align 8, !tbaa !56
  call void @llvm.lifetime.start.p0(i64 8, ptr %6) #12
  call void @llvm.lifetime.start.p0(i64 8, ptr %7) #12
  call void @llvm.lifetime.start.p0(i64 8, ptr %8) #12
  call void @llvm.lifetime.start.p0(i64 8, ptr %9) #12
  %13 = load ptr, ptr %3, align 8, !tbaa !41
  %14 = call ptr @Abc_NtkCreateNode(ptr noundef %13)
  store ptr %14, ptr %6, align 8, !tbaa !3
  %15 = load ptr, ptr %6, align 8, !tbaa !3
  %16 = load ptr, ptr %4, align 8, !tbaa !53
  %17 = getelementptr inbounds ptr, ptr %16, i64 0
  %18 = load ptr, ptr %17, align 8, !tbaa !3
  call void @Abc_ObjAddFanin(ptr noundef %15, ptr noundef %18)
  %19 = load ptr, ptr %6, align 8, !tbaa !3
  %20 = load ptr, ptr %4, align 8, !tbaa !53
  %21 = getelementptr inbounds ptr, ptr %20, i64 1
  %22 = load ptr, ptr %21, align 8, !tbaa !3
  call void @Abc_ObjAddFanin(ptr noundef %19, ptr noundef %22)
  %23 = load ptr, ptr %6, align 8, !tbaa !3
  %24 = load ptr, ptr %4, align 8, !tbaa !53
  %25 = getelementptr inbounds ptr, ptr %24, i64 2
  %26 = load ptr, ptr %25, align 8, !tbaa !3
  call void @Abc_ObjAddFanin(ptr noundef %23, ptr noundef %26)
  %27 = load ptr, ptr %6, align 8, !tbaa !3
  %28 = load ptr, ptr %4, align 8, !tbaa !53
  %29 = getelementptr inbounds ptr, ptr %28, i64 3
  %30 = load ptr, ptr %29, align 8, !tbaa !3
  call void @Abc_ObjAddFanin(ptr noundef %27, ptr noundef %30)
  %31 = load ptr, ptr %6, align 8, !tbaa !3
  %32 = load ptr, ptr %4, align 8, !tbaa !53
  %33 = getelementptr inbounds ptr, ptr %32, i64 4
  %34 = load ptr, ptr %33, align 8, !tbaa !3
  call void @Abc_ObjAddFanin(ptr noundef %31, ptr noundef %34)
  %35 = load ptr, ptr %6, align 8, !tbaa !3
  %36 = load ptr, ptr %4, align 8, !tbaa !53
  %37 = getelementptr inbounds ptr, ptr %36, i64 5
  %38 = load ptr, ptr %37, align 8, !tbaa !3
  call void @Abc_ObjAddFanin(ptr noundef %35, ptr noundef %38)
  %39 = load ptr, ptr %5, align 8, !tbaa !56
  %40 = call ptr @Cudd_bddIthVar(ptr noundef %39, i32 noundef 1)
  store ptr %40, ptr %7, align 8, !tbaa !58
  %41 = load ptr, ptr %5, align 8, !tbaa !56
  %42 = load ptr, ptr %7, align 8, !tbaa !58
  %43 = load ptr, ptr %5, align 8, !tbaa !56
  %44 = call ptr @Cudd_bddIthVar(ptr noundef %43, i32 noundef 3)
  %45 = load ptr, ptr %5, align 8, !tbaa !56
  %46 = call ptr @Cudd_bddIthVar(ptr noundef %45, i32 noundef 2)
  %47 = call ptr @Cudd_bddIte(ptr noundef %41, ptr noundef %42, ptr noundef %44, ptr noundef %46)
  store ptr %47, ptr %8, align 8, !tbaa !58
  %48 = load ptr, ptr %8, align 8, !tbaa !58
  call void @Cudd_Ref(ptr noundef %48)
  %49 = load ptr, ptr %5, align 8, !tbaa !56
  %50 = load ptr, ptr %7, align 8, !tbaa !58
  %51 = load ptr, ptr %5, align 8, !tbaa !56
  %52 = call ptr @Cudd_bddIthVar(ptr noundef %51, i32 noundef 5)
  %53 = load ptr, ptr %5, align 8, !tbaa !56
  %54 = call ptr @Cudd_bddIthVar(ptr noundef %53, i32 noundef 4)
  %55 = call ptr @Cudd_bddIte(ptr noundef %49, ptr noundef %50, ptr noundef %52, ptr noundef %54)
  store ptr %55, ptr %9, align 8, !tbaa !58
  %56 = load ptr, ptr %9, align 8, !tbaa !58
  call void @Cudd_Ref(ptr noundef %56)
  %57 = load ptr, ptr %5, align 8, !tbaa !56
  %58 = call ptr @Cudd_bddIthVar(ptr noundef %57, i32 noundef 0)
  store ptr %58, ptr %7, align 8, !tbaa !58
  %59 = load ptr, ptr %5, align 8, !tbaa !56
  %60 = load ptr, ptr %7, align 8, !tbaa !58
  %61 = load ptr, ptr %9, align 8, !tbaa !58
  %62 = load ptr, ptr %8, align 8, !tbaa !58
  %63 = call ptr @Cudd_bddIte(ptr noundef %59, ptr noundef %60, ptr noundef %61, ptr noundef %62)
  %64 = load ptr, ptr %6, align 8, !tbaa !3
  %65 = getelementptr inbounds nuw %struct.Abc_Obj_t_, ptr %64, i32 0, i32 6
  store ptr %63, ptr %65, align 8, !tbaa !60
  %66 = load ptr, ptr %6, align 8, !tbaa !3
  %67 = getelementptr inbounds nuw %struct.Abc_Obj_t_, ptr %66, i32 0, i32 6
  %68 = load ptr, ptr %67, align 8, !tbaa !60
  call void @Cudd_Ref(ptr noundef %68)
  %69 = load ptr, ptr %5, align 8, !tbaa !56
  %70 = load ptr, ptr %8, align 8, !tbaa !58
  call void @Cudd_RecursiveDeref(ptr noundef %69, ptr noundef %70)
  %71 = load ptr, ptr %5, align 8, !tbaa !56
  %72 = load ptr, ptr %9, align 8, !tbaa !58
  call void @Cudd_RecursiveDeref(ptr noundef %71, ptr noundef %72)
  %73 = load ptr, ptr %6, align 8, !tbaa !3
  call void @llvm.lifetime.end.p0(i64 8, ptr %9) #12
  call void @llvm.lifetime.end.p0(i64 8, ptr %8) #12
  call void @llvm.lifetime.end.p0(i64 8, ptr %7) #12
  call void @llvm.lifetime.end.p0(i64 8, ptr %6) #12
  call void @llvm.lifetime.end.p0(i64 8, ptr %5) #12
  ret ptr %73
}